; Function Attrs: mustprogress uwtable
define void @_ZN3re28Compiler18AddRuneRangeLatin1Eiib(ptr nocapture noundef nonnull align 8 dereferenceable(212) %this, i32 noundef %lo, i32 noundef %hi, i1 noundef zeroext %foldcase) local_unnamed_addr #0 align 2 {
entry:
  %cmp = icmp sgt i32 %lo, %hi
  %cmp2 = icmp sgt i32 %lo, 255
  %or.cond = or i1 %cmp2, %cmp
  br i1 %or.cond, label %return, label %if.end

if.end:                                           ; preds = %entry
  %spec.store.select = tail call i32 @llvm.smin.i32(i32 %hi, i32 255)
  %conv = trunc i32 %lo to i8
  %conv6 = trunc i32 %spec.store.select to i8
  %call = tail call noundef i32 @_ZN3re28Compiler22UncachedRuneByteSuffixEhhbi(ptr noundef nonnull align 8 dereferenceable(212) %this, i8 noundef zeroext %conv, i8 noundef zeroext %conv6, i1 noundef zeroext %foldcase, i32 noundef 0)
  %failed_.i = getelementptr inbounds i8, ptr %this, i64 104
  %0 = load i8, ptr %failed_.i, align 8
  %1 = and i8 %0, 1
  %tobool.not.i = icmp eq i8 %1, 0
  br i1 %tobool.not.i, label %if.end.i, label %return

if.end.i:                                         ; preds = %if.end
  %rune_range_.i = getelementptr inbounds i8, ptr %this, i64 192
  %2 = load i32, ptr %rune_range_.i, align 8
  %cmp.i = icmp eq i32 %2, 0
  br i1 %cmp.i, label %return.sink.split.i, label %if.end5.i

if.end5.i:                                        ; preds = %if.end.i
  %encoding_.i = getelementptr inbounds i8, ptr %this, i64 108
  %3 = load i32, ptr %encoding_.i, align 4
  %cmp6.i = icmp eq i32 %3, 1
  br i1 %cmp6.i, label %if.then7.i, label %if.end12.i

if.then7.i:                                       ; preds = %if.end5.i
  %call.i = tail call noundef i32 @_ZN3re28Compiler18AddSuffixRecursiveEii(ptr noundef nonnull align 8 dereferenceable(212) %this, i32 noundef %2, i32 noundef %call)
  br label %return.sink.split.i

if.end12.i:                                       ; preds = %if.end5.i
  %call13.i = tail call noundef i32 @_ZN3re28Compiler9AllocInstEi(ptr noundef nonnull align 8 dereferenceable(212) %this, i32 noundef 1)
  %cmp14.i = icmp slt i32 %call13.i, 0
  br i1 %cmp14.i, label %return.sink.split.i, label %if.end18.i

if.end18.i:                                       ; preds = %if.end12.i
  %conv.i.i = zext nneg i32 %call13.i to i64
  %add.ptr.i.i.i.i.i.i.i.i = getelementptr inbounds i8, ptr %this, i64 128
  %4 = load ptr, ptr %add.ptr.i.i.i.i.i.i.i.i, align 8
  %arrayidx.i.i.i = getelementptr inbounds %"class.re2::Prog::Inst", ptr %4, i64 %conv.i.i
  %5 = load i32, ptr %rune_range_.i, align 8
  tail call void @_ZN3re24Prog4Inst7InitAltEjj(ptr noundef nonnull align 4 dereferenceable(8) %arrayidx.i.i.i, i32 noundef %5, i32 noundef %call)
  br label %return.sink.split.i

return.sink.split.i:                              ; preds = %if.end18.i, %if.end12.i, %if.then7.i, %if.end.i
  %call13.sink.i = phi i32 [ %call13.i, %if.end18.i ], [ %call.i, %if.then7.i ], [ %call, %if.end.i ], [ 0, %if.end12.i ]
  store i32 %call13.sink.i, ptr %rune_range_.i, align 8
  br label %return

return:                                           ; preds = %return.sink.split.i, %if.end, %entry
  ret void
}